; Function Attrs: mustprogress nounwind uwtable
define internal fastcc void @_ZNSt16allocator_traitsISaIN5Yosys7hashlib4dictIPN12_GLOBAL__N_19FlowGraph4NodeENS1_4poolIPKNS0_5RTLIL4WireENS1_8hash_opsISB_EEEENSC_IS6_EEE7entry_tEEE7destroyISH_EEvRSI_PT_(ptr noundef readonly captures(none) %0) unnamed_addr #6 align 2 personality ptr @__gxx_personality_v0 {
  %2 = getelementptr inbounds nuw i8, ptr %0, i64 8
  %3 = getelementptr inbounds nuw i8, ptr %0, i64 32
  %4 = load ptr, ptr %3, align 8, !tbaa !434
  %.not.i.i.i.i.i.i.i = icmp eq ptr %4, null
  br i1 %.not.i.i.i.i.i.i.i, label %_ZNSt6vectorIN5Yosys7hashlib4poolIPKNS0_5RTLIL4WireENS1_8hash_opsIS6_EEE7entry_tESaISA_EED2Ev.exit.i.i.i.i, label %5

5:                                                ; preds = %1
  %6 = getelementptr inbounds nuw i8, ptr %0, i64 48
  %7 = load ptr, ptr %6, align 8, !tbaa !435
  %8 = ptrtoint ptr %7 to i64
  %9 = ptrtoint ptr %4 to i64
  %10 = sub i64 %8, %9
  tail call void @_ZdlPvm(ptr noundef nonnull %4, i64 noundef %10) #35
  br label %_ZNSt6vectorIN5Yosys7hashlib4poolIPKNS0_5RTLIL4WireENS1_8hash_opsIS6_EEE7entry_tESaISA_EED2Ev.exit.i.i.i.i

_ZNSt6vectorIN5Yosys7hashlib4poolIPKNS0_5RTLIL4WireENS1_8hash_opsIS6_EEE7entry_tESaISA_EED2Ev.exit.i.i.i.i: ; preds = %5, %1
  %11 = load ptr, ptr %2, align 8, !tbaa !217
  %.not.i.i.i1.i.i.i.i = icmp eq ptr %11, null
  br i1 %.not.i.i.i1.i.i.i.i, label %_ZNSt15__new_allocatorIN5Yosys7hashlib4dictIPN12_GLOBAL__N_19FlowGraph4NodeENS1_4poolIPKNS0_5RTLIL4WireENS1_8hash_opsISB_EEEENSC_IS6_EEE7entry_tEE7destroyISH_EEvPT_.exit, label %12

12:                                               ; preds = %_ZNSt6vectorIN5Yosys7hashlib4poolIPKNS0_5RTLIL4WireENS1_8hash_opsIS6_EEE7entry_tESaISA_EED2Ev.exit.i.i.i.i
  %13 = getelementptr inbounds nuw i8, ptr %0, i64 24
  %14 = load ptr, ptr %13, align 8, !tbaa !425
  %15 = ptrtoint ptr %14 to i64
  %16 = ptrtoint ptr %11 to i64
  %17 = sub i64 %15, %16
  tail call void @_ZdlPvm(ptr noundef nonnull %11, i64 noundef %17) #35
  br label %_ZNSt15__new_allocatorIN5Yosys7hashlib4dictIPN12_GLOBAL__N_19FlowGraph4NodeENS1_4poolIPKNS0_5RTLIL4WireENS1_8hash_opsISB_EEEENSC_IS6_EEE7entry_tEE7destroyISH_EEvPT_.exit

_ZNSt15__new_allocatorIN5Yosys7hashlib4dictIPN12_GLOBAL__N_19FlowGraph4NodeENS1_4poolIPKNS0_5RTLIL4WireENS1_8hash_opsISB_EEEENSC_IS6_EEE7entry_tEE7destroyISH_EEvPT_.exit: ; preds = %_ZNSt6vectorIN5Yosys7hashlib4poolIPKNS0_5RTLIL4WireENS1_8hash_opsIS6_EEE7entry_tESaISA_EED2Ev.exit.i.i.i.i, %12
  ret void
}